; ModuleID = '60/1586.c'
source_filename = "60/1586.c"
target datalayout = "e-m:e-p270:32:32-p271:32:32-p272:64:64-i64:64-f80:128-n8:16:32:64-S128"
target triple = "x86_64-pc-linux-gnu"

@.str = private unnamed_addr constant [3 x i8] c"%d\00", align 1
@.str.1 = private unnamed_addr constant [7 x i8] c"%d %d\0A\00", align 1
@.str.2 = private unnamed_addr constant [6 x i8] c"empty\00", align 1

; Function Attrs: noinline nounwind uwtable
define dso_local i32 @prime(i32 %0) #0 {
  %2 = alloca i32, align 4
  %3 = alloca i32, align 4
  %4 = alloca i32, align 4
  %5 = alloca i32, align 4
  store i32 %0, i32* %2, align 4
  store i32 0, i32* %4, align 4
  store i32 2, i32* %3, align 4
  br label %6

6:                                                ; preds = %19, %1
  %7 = load i32, i32* %3, align 4
  %8 = load i32, i32* %2, align 4
  %9 = icmp slt i32 %7, %8
  br i1 %9, label %10, label %22

10:                                               ; preds = %6
  %11 = load i32, i32* %2, align 4
  %12 = load i32, i32* %3, align 4
  %13 = srem i32 %11, %12
  %14 = icmp eq i32 %13, 0
  br i1 %14, label %15, label %18

15:                                               ; preds = %10
  %16 = load i32, i32* %4, align 4
  %17 = add nsw i32 %16, 1
  store i32 %17, i32* %4, align 4
  br label %18

18:                                               ; preds = %15, %10
  br label %19

19:                                               ; preds = %18
  %20 = load i32, i32* %3, align 4
  %21 = add nsw i32 %20, 1
  store i32 %21, i32* %3, align 4
  br label %6

22:                                               ; preds = %6
  %23 = load i32, i32* %4, align 4
  %24 = icmp sgt i32 %23, 0
  br i1 %24, label %25, label %26

25:                                               ; preds = %22
  store i32 0, i32* %5, align 4
  br label %27

26:                                               ; preds = %22
  store i32 1, i32* %5, align 4
  br label %27

27:                                               ; preds = %26, %25
  %28 = load i32, i32* %5, align 4
  ret i32 %28
}

; Function Attrs: noinline nounwind uwtable
define dso_local i32 @main() #0 {
  %1 = alloca i32, align 4
  %2 = alloca i32, align 4
  %3 = alloca i32, align 4
  %4 = alloca i32, align 4
  %5 = alloca i32, align 4
  store i32 0, i32* %1, align 4
  %6 = call i32 (i8*, ...) @__isoc99_scanf(i8* getelementptr inbounds ([3 x i8], [3 x i8]* @.str, i64 0, i64 0), i32* %2)
  store i32 0, i32* %4, align 4
  store i32 3, i32* %3, align 4
  br label %7

7:                                                ; preds = %29, %0
  %8 = load i32, i32* %3, align 4
  %9 = load i32, i32* %2, align 4
  %10 = sub nsw i32 %9, 1
  %11 = icmp slt i32 %8, %10
  br i1 %11, label %12, label %32

12:                                               ; preds = %7
  %13 = load i32, i32* %3, align 4
  %14 = call i32 @prime(i32 %13)
  %15 = icmp eq i32 %14, 1
  br i1 %15, label %16, label %26

16:                                               ; preds = %12
  %17 = load i32, i32* %3, align 4
  %18 = add nsw i32 %17, 2
  %19 = call i32 @prime(i32 %18)
  %20 = icmp eq i32 %19, 1
  br i1 %20, label %21, label %26

21:                                               ; preds = %16
  %22 = load i32, i32* %3, align 4
  %23 = load i32, i32* %3, align 4
  %24 = add nsw i32 %23, 2
  %25 = call i32 (i8*, ...) @printf(i8* getelementptr inbounds ([7 x i8], [7 x i8]* @.str.1, i64 0, i64 0), i32 %22, i32 %24)
  br label %26

26:                                               ; preds = %21, %16, %12
  %27 = load i32, i32* %4, align 4
  %28 = add nsw i32 %27, 1
  store i32 %28, i32* %4, align 4
  br label %29

29:                                               ; preds = %26
  %30 = load i32, i32* %3, align 4
  %31 = add nsw i32 %30, 1
  store i32 %31, i32* %3, align 4
  br label %7

32:                                               ; preds = %7
  %33 = load i32, i32* %4, align 4
  %34 = icmp eq i32 %33, 0
  br i1 %34, label %35, label %37

35:                                               ; preds = %32
  %36 = call i32 (i8*, ...) @printf(i8* getelementptr inbounds ([6 x i8], [6 x i8]* @.str.2, i64 0, i64 0))
  br label %37

37:                                               ; preds = %35, %32
  ret i32 0
}

declare dso_local i32 @__isoc99_scanf(i8*, ...) #1

declare dso_local i32 @printf(i8*, ...) #1


!llvm.module.flags = !{!0}
!llvm.ident = !{!1}

!0 = !{i32 1, !"wchar_size", i32 4}
!1 = !{!"clang version 10.0.0-4ubuntu1 "}
